target datalayout = "e-m:e-p270:32:32-p271:32:32-p272:64:64-i64:64-i128:128-f80:128-n8:16:32:64-S128"
target triple = "x86_64-pc-linux-gnu"

%struct.PJconsts = type { ptr, ptr, ptr, ptr, ptr, ptr, ptr, ptr, ptr, ptr, ptr, ptr, i32, ptr, ptr, ptr, ptr, ptr, ptr, ptr, ptr, double, double, double, double, double, double, double, double, double, double, double, double, double, double, double, double, double, double, double, double, double, double, i32, i32, i32, i32, i32, i32, i32, i32, i32, i32, i32, ptr, ptr, ptr, ptr, ptr, ptr, double, double, double, double, double, double, double, double, double, double, double, i32, [7 x double], i32, ptr, ptr, double, double, i32, [4 x i8], %"class.std::shared_ptr", i8, double, i8, %"class.std::__cxx11::basic_string", %"class.std::__cxx11::basic_string", %"class.std::__cxx11::basic_string", i8, %"class.std::vector", i32, %"class.std::vector.3", i32, i8, i8, i8, ptr }
%"class.std::shared_ptr" = type { %"class.std::__shared_ptr" }
%"class.std::__shared_ptr" = type { ptr, %"class.std::__shared_count" }
%"class.std::__shared_count" = type { ptr }
%"class.std::__cxx11::basic_string" = type { %"struct.std::__cxx11::basic_string<char>::_Alloc_hider", i64, %union.anon }
%"struct.std::__cxx11::basic_string<char>::_Alloc_hider" = type { ptr }
%union.anon = type { i64, [8 x i8] }
%"class.std::vector" = type { %"struct.std::_Vector_base" }
%"struct.std::_Vector_base" = type { %"struct.std::_Vector_base<osgeo::proj::operation::GridDescription, std::allocator<osgeo::proj::operation::GridDescription>>::_Vector_impl" }
%"struct.std::_Vector_base<osgeo::proj::operation::GridDescription, std::allocator<osgeo::proj::operation::GridDescription>>::_Vector_impl" = type { %"struct.std::_Vector_base<osgeo::proj::operation::GridDescription, std::allocator<osgeo::proj::operation::GridDescription>>::_Vector_impl_data" }
%"struct.std::_Vector_base<osgeo::proj::operation::GridDescription, std::allocator<osgeo::proj::operation::GridDescription>>::_Vector_impl_data" = type { ptr, ptr, ptr }
%"class.std::vector.3" = type { %"struct.std::_Vector_base.4" }
%"struct.std::_Vector_base.4" = type { %"struct.std::_Vector_base<PJCoordOperation, std::allocator<PJCoordOperation>>::_Vector_impl" }
%"struct.std::_Vector_base<PJCoordOperation, std::allocator<PJCoordOperation>>::_Vector_impl" = type { %"struct.std::_Vector_base<PJCoordOperation, std::allocator<PJCoordOperation>>::_Vector_impl_data" }
%"struct.std::_Vector_base<PJCoordOperation, std::allocator<PJCoordOperation>>::_Vector_impl_data" = type { ptr, ptr, ptr }
%"struct.(anonymous namespace)::pj_col_urban" = type { double, double, double, double, double, double }
%struct.PJ_XY = type { double, double }
%struct.PJ_LP = type { double, double }

; Function Attrs: mustprogress nounwind uwtable
define internal { double, double } @_ZL17col_urban_forward5PJ_LPP8PJconsts(double %0, double %1, ptr noundef %2) #6 {
  %4 = alloca %struct.PJ_XY, align 8
  %5 = alloca %struct.PJ_LP, align 8
  %6 = alloca ptr, align 8
  %7 = alloca ptr, align 8
  %8 = alloca double, align 8
  %9 = alloca double, align 8
  %10 = alloca double, align 8
  %11 = alloca double, align 8
  %12 = alloca double, align 8
  %13 = alloca double, align 8
  %14 = alloca double, align 8
  %15 = getelementptr inbounds nuw { double, double }, ptr %5, i32 0, i32 0
  store double %0, ptr %15, align 8
  %16 = getelementptr inbounds nuw { double, double }, ptr %5, i32 0, i32 1
  store double %1, ptr %16, align 8
  store ptr %2, ptr %6, align 8, !tbaa !3
  call void @llvm.lifetime.start.p0(i64 8, ptr %7) #7
  %17 = load ptr, ptr %6, align 8, !tbaa !3
  %18 = getelementptr inbounds nuw %struct.PJconsts, ptr %17, i32 0, i32 11
  %19 = load ptr, ptr %18, align 8, !tbaa !43
  store ptr %19, ptr %7, align 8, !tbaa !41
  call void @llvm.lifetime.start.p0(i64 8, ptr %8) #7
  %20 = getelementptr inbounds nuw %struct.PJ_LP, ptr %5, i32 0, i32 1
  %21 = load double, ptr %20, align 8, !tbaa !61
  %22 = call double @cos(double noundef %21) #7, !tbaa !52
  store double %22, ptr %8, align 8, !tbaa !47
  call void @llvm.lifetime.start.p0(i64 8, ptr %9) #7
  %23 = getelementptr inbounds nuw %struct.PJ_LP, ptr %5, i32 0, i32 1
  %24 = load double, ptr %23, align 8, !tbaa !61
  %25 = call double @sin(double noundef %24) #7, !tbaa !52
  store double %25, ptr %9, align 8, !tbaa !47
  call void @llvm.lifetime.start.p0(i64 8, ptr %10) #7
  %26 = load ptr, ptr %6, align 8, !tbaa !3
  %27 = getelementptr inbounds nuw %struct.PJconsts, ptr %26, i32 0, i32 27
  %28 = load double, ptr %27, align 8, !tbaa !53
  %29 = load double, ptr %9, align 8, !tbaa !47
  %30 = fmul double %28, %29
  %31 = load double, ptr %9, align 8, !tbaa !47
  %32 = fneg double %30
  %33 = call double @llvm.fmuladd.f64(double %32, double %31, double 1.000000e+00)
  %34 = call double @sqrt(double noundef %33) #7, !tbaa !52
  %35 = fdiv double 1.000000e+00, %34
  store double %35, ptr %10, align 8, !tbaa !47
  call void @llvm.lifetime.start.p0(i64 8, ptr %11) #7
  %36 = getelementptr inbounds nuw %struct.PJ_LP, ptr %5, i32 0, i32 0
  %37 = load double, ptr %36, align 8, !tbaa !63
  %38 = load double, ptr %10, align 8, !tbaa !47
  %39 = fmul double %37, %38
  %40 = load double, ptr %8, align 8, !tbaa !47
  %41 = fmul double %39, %40
  store double %41, ptr %11, align 8, !tbaa !47
  %42 = load ptr, ptr %7, align 8, !tbaa !41
  %43 = getelementptr inbounds nuw %"struct.(anonymous namespace)::pj_col_urban", ptr %42, i32 0, i32 2
  %44 = load double, ptr %43, align 8, !tbaa !54
  %45 = load double, ptr %11, align 8, !tbaa !47
  %46 = fmul double %44, %45
  %47 = getelementptr inbounds nuw %struct.PJ_XY, ptr %4, i32 0, i32 0
  store double %46, ptr %47, align 8, !tbaa !64
  call void @llvm.lifetime.start.p0(i64 8, ptr %12) #7
  %48 = getelementptr inbounds nuw %struct.PJ_LP, ptr %5, i32 0, i32 1
  %49 = load double, ptr %48, align 8, !tbaa !61
  %50 = load ptr, ptr %6, align 8, !tbaa !3
  %51 = getelementptr inbounds nuw %struct.PJconsts, ptr %50, i32 0, i32 61
  %52 = load double, ptr %51, align 8, !tbaa !51
  %53 = fadd double %49, %52
  %54 = fmul double 5.000000e-01, %53
  %55 = call double @sin(double noundef %54) #7, !tbaa !52
  store double %55, ptr %12, align 8, !tbaa !47
  call void @llvm.lifetime.start.p0(i64 8, ptr %13) #7
  %56 = load ptr, ptr %6, align 8, !tbaa !3
  %57 = getelementptr inbounds nuw %struct.PJconsts, ptr %56, i32 0, i32 27
  %58 = load double, ptr %57, align 8, !tbaa !53
  %59 = fsub double 1.000000e+00, %58
  %60 = load ptr, ptr %6, align 8, !tbaa !3
  %61 = getelementptr inbounds nuw %struct.PJconsts, ptr %60, i32 0, i32 27
  %62 = load double, ptr %61, align 8, !tbaa !53
  %63 = load double, ptr %12, align 8, !tbaa !47
  %64 = fmul double %62, %63
  %65 = load double, ptr %12, align 8, !tbaa !47
  %66 = fneg double %64
  %67 = call double @llvm.fmuladd.f64(double %66, double %65, double 1.000000e+00)
  %68 = call double @pow(double noundef %67, double noundef 1.500000e+00) #7, !tbaa !52
  %69 = fdiv double %59, %68
  store double %69, ptr %13, align 8, !tbaa !47
  call void @llvm.lifetime.start.p0(i64 8, ptr %14) #7
  %70 = load ptr, ptr %7, align 8, !tbaa !41
  %71 = getelementptr inbounds nuw %"struct.(anonymous namespace)::pj_col_urban", ptr %70, i32 0, i32 0
  %72 = load double, ptr %71, align 8, !tbaa !49
  %73 = load double, ptr %13, align 8, !tbaa !47
  %74 = fdiv double %72, %73
  %75 = fadd double 1.000000e+00, %74
  store double %75, ptr %14, align 8, !tbaa !47
  %76 = load double, ptr %14, align 8, !tbaa !47
  %77 = load ptr, ptr %7, align 8, !tbaa !41
  %78 = getelementptr inbounds nuw %"struct.(anonymous namespace)::pj_col_urban", ptr %77, i32 0, i32 1
  %79 = load double, ptr %78, align 8, !tbaa !55
  %80 = fmul double %76, %79
  %81 = getelementptr inbounds nuw %struct.PJ_LP, ptr %5, i32 0, i32 1
  %82 = load double, ptr %81, align 8, !tbaa !61
  %83 = load ptr, ptr %6, align 8, !tbaa !3
  %84 = getelementptr inbounds nuw %struct.PJconsts, ptr %83, i32 0, i32 61
  %85 = load double, ptr %84, align 8, !tbaa !51
  %86 = fsub double %82, %85
  %87 = load ptr, ptr %7, align 8, !tbaa !41
  %88 = getelementptr inbounds nuw %"struct.(anonymous namespace)::pj_col_urban", ptr %87, i32 0, i32 3
  %89 = load double, ptr %88, align 8, !tbaa !56
  %90 = load double, ptr %11, align 8, !tbaa !47
  %91 = fmul double %89, %90
  %92 = load double, ptr %11, align 8, !tbaa !47
  %93 = call double @llvm.fmuladd.f64(double %91, double %92, double %86)
  %94 = fmul double %80, %93
  %95 = getelementptr inbounds nuw %struct.PJ_XY, ptr %4, i32 0, i32 1
  store double %94, ptr %95, align 8, !tbaa !66
  call void @llvm.lifetime.end.p0(i64 8, ptr %14) #7
  call void @llvm.lifetime.end.p0(i64 8, ptr %13) #7
  call void @llvm.lifetime.end.p0(i64 8, ptr %12) #7
  call void @llvm.lifetime.end.p0(i64 8, ptr %11) #7
  call void @llvm.lifetime.end.p0(i64 8, ptr %10) #7
  call void @llvm.lifetime.end.p0(i64 8, ptr %9) #7
  call void @llvm.lifetime.end.p0(i64 8, ptr %8) #7
  call void @llvm.lifetime.end.p0(i64 8, ptr %7) #7
  %96 = load { double, double }, ptr %4, align 8
  ret { double, double } %96
}