; Function Attrs: mustprogress nofree nounwind willreturn memory(readwrite, inaccessiblemem: write) uwtable
define internal { double, double } @_ZL17col_urban_forward5PJ_LPP8PJconsts(double %0, double %1, ptr noundef readonly captures(none) %2) #5 {
  %4 = getelementptr inbounds nuw i8, ptr %2, i64 88
  %5 = load ptr, ptr %4, align 8, !tbaa !40
  %6 = tail call double @cos(double noundef %1) #7, !tbaa !47
  %7 = tail call double @sin(double noundef %1) #7, !tbaa !47
  %8 = getelementptr inbounds nuw i8, ptr %2, i64 216
  %9 = load double, ptr %8, align 8, !tbaa !48
  %10 = fneg double %7
  %11 = fmul double %9, %10
  %12 = tail call double @llvm.fmuladd.f64(double %11, double %7, double 1.000000e+00)
  %13 = tail call double @sqrt(double noundef %12) #7, !tbaa !47
  %14 = fdiv double 1.000000e+00, %13
  %15 = fmul double %0, %14
  %16 = fmul double %6, %15
  %17 = getelementptr inbounds nuw i8, ptr %5, i64 16
  %18 = load double, ptr %17, align 8, !tbaa !49
  %19 = fmul double %18, %16
  %20 = getelementptr inbounds nuw i8, ptr %2, i64 448
  %21 = load double, ptr %20, align 8, !tbaa !46
  %22 = fadd double %1, %21
  %23 = fmul double %22, 5.000000e-01
  %24 = tail call double @sin(double noundef %23) #7, !tbaa !47
  %25 = fsub double 1.000000e+00, %9
  %26 = fneg double %24
  %27 = fmul double %9, %26
  %28 = tail call double @llvm.fmuladd.f64(double %27, double %24, double 1.000000e+00)
  %29 = tail call double @pow(double noundef %28, double noundef 1.500000e+00) #7, !tbaa !47
  %30 = fdiv double %25, %29
  %31 = load double, ptr %5, align 8, !tbaa !44
  %32 = fdiv double %31, %30
  %33 = fadd double %32, 1.000000e+00
  %34 = getelementptr inbounds nuw i8, ptr %5, i64 8
  %35 = load double, ptr %34, align 8, !tbaa !50
  %36 = fmul double %35, %33
  %37 = fsub double %1, %21
  %38 = getelementptr inbounds nuw i8, ptr %5, i64 24
  %39 = load double, ptr %38, align 8, !tbaa !51
  %40 = fmul double %16, %39
  %41 = tail call double @llvm.fmuladd.f64(double %40, double %16, double %37)
  %42 = fmul double %36, %41
  %.fca.0.insert = insertvalue { double, double } poison, double %19, 0
  %.fca.1.insert = insertvalue { double, double } %.fca.0.insert, double %42, 1
  ret { double, double } %.fca.1.insert
}